; Function Attrs: mustprogress nofree norecurse nosync nounwind willreturn memory(argmem: readwrite) uwtable
define void @_ZN8proxygen15HTTPTransaction28updateIngressCompressionInfoERKNS_15CompressionInfoE(ptr nocapture noundef nonnull writeonly align 8 dereferenceable(912) %this, ptr nocapture noundef nonnull readonly align 4 dereferenceable(56) %tableInfo) local_unnamed_addr #11 align 2 {
entry:
  %ingress = getelementptr inbounds i8, ptr %tableInfo, i64 28
  %ingress2 = getelementptr inbounds i8, ptr %this, i64 316
  %0 = load i32, ptr %ingress, align 4
  store i32 %0, ptr %ingress2, align 4
  %bytesStored_.i = getelementptr inbounds i8, ptr %tableInfo, i64 32
  %1 = load i32, ptr %bytesStored_.i, align 4
  %bytesStored_3.i = getelementptr inbounds i8, ptr %this, i64 320
  store i32 %1, ptr %bytesStored_3.i, align 8
  %headersStored_.i = getelementptr inbounds i8, ptr %tableInfo, i64 36
  %2 = load i32, ptr %headersStored_.i, align 4
  %headersStored_4.i = getelementptr inbounds i8, ptr %this, i64 324
  store i32 %2, ptr %headersStored_4.i, align 4
  %inserts_.i = getelementptr inbounds i8, ptr %tableInfo, i64 40
  %3 = load i32, ptr %inserts_.i, align 4
  %inserts_5.i = getelementptr inbounds i8, ptr %this, i64 328
  store i32 %3, ptr %inserts_5.i, align 8
  %blockedInserts_.i = getelementptr inbounds i8, ptr %tableInfo, i64 44
  %4 = load i32, ptr %blockedInserts_.i, align 4
  %blockedInserts_6.i = getelementptr inbounds i8, ptr %this, i64 332
  store i32 %4, ptr %blockedInserts_6.i, align 4
  %duplications_.i = getelementptr inbounds i8, ptr %tableInfo, i64 48
  %5 = load i32, ptr %duplications_.i, align 4
  %duplications_7.i = getelementptr inbounds i8, ptr %this, i64 336
  store i32 %5, ptr %duplications_7.i, align 8
  %staticRefs_.i = getelementptr inbounds i8, ptr %tableInfo, i64 52
  %6 = load i32, ptr %staticRefs_.i, align 4
  %staticRefs_8.i = getelementptr inbounds i8, ptr %this, i64 340
  store i32 %6, ptr %staticRefs_8.i, align 4
  ret void
}